target datalayout = "e-m:e-p270:32:32-p271:32:32-p272:64:64-i64:64-i128:128-f80:128-n8:16:32:64-S128"
target triple = "x86_64-unknown-linux-gnu"

%"class.std::unordered_set" = type { %"class.std::_Hashtable" }
%"class.std::_Hashtable" = type { ptr, i64, %"struct.std::__detail::_Hash_node_base", i64, %"struct.std::__detail::_Prime_rehash_policy", ptr }
%"struct.std::__detail::_Hash_node_base" = type { ptr }
%"struct.std::__detail::_Prime_rehash_policy" = type { float, i64 }

; Function Attrs: mustprogress nounwind uwtable
define linkonce_odr void @_ZNSt15__new_allocatorINSt8__detail10_Hash_nodeIPKhLb0EEEEC2Ev(ptr noundef nonnull align 1 dereferenceable(1) %this) unnamed_addr #1 comdat align 2 {
entry:
  %this.addr = alloca ptr, align 8
  store ptr %this, ptr %this.addr, align 8
  ret void
}

; Function Attrs: mustprogress nounwind uwtable
define linkonce_odr void @_ZNSaINSt8__detail10_Hash_nodeIPKhLb0EEEEC2Ev(ptr noundef nonnull align 1 dereferenceable(1) %this) unnamed_addr #1 comdat align 2 {
entry:
  %this.addr = alloca ptr, align 8
  store ptr %this, ptr %this.addr, align 8
  %this1 = load ptr, ptr %this.addr, align 8
  call void @_ZNSt15__new_allocatorINSt8__detail10_Hash_nodeIPKhLb0EEEEC2Ev(ptr noundef nonnull align 1 dereferenceable(1) %this1) #12
  ret void
}

; Function Attrs: mustprogress nounwind uwtable
define linkonce_odr void @_ZNSt8__detail21_Hashtable_ebo_helperILi1ESt4hashIPKhELb1EEC2Ev(ptr noundef nonnull align 1 dereferenceable(1) %this) unnamed_addr #1 comdat align 2 {
entry:
  %this.addr = alloca ptr, align 8
  store ptr %this, ptr %this.addr, align 8
  ret void
}

; Function Attrs: mustprogress nounwind uwtable
define linkonce_odr void @_ZNSt8__detail21_Hashtable_ebo_helperILi0ESaINS_10_Hash_nodeIPKhLb0EEEELb1EEC2Ev(ptr noundef nonnull align 1 dereferenceable(1) %this) unnamed_addr #1 comdat align 2 {
entry:
  %this.addr = alloca ptr, align 8
  store ptr %this, ptr %this.addr, align 8
  %this1 = load ptr, ptr %this.addr, align 8
  call void @_ZNSaINSt8__detail10_Hash_nodeIPKhLb0EEEEC2Ev(ptr noundef nonnull align 1 dereferenceable(1) %this1) #12
  ret void
}

; Function Attrs: mustprogress nounwind uwtable
define linkonce_odr void @_ZNSt8__detail21_Hashtable_ebo_helperILi0ESt8equal_toIPKhELb1EEC2Ev(ptr noundef nonnull align 1 dereferenceable(1) %this) unnamed_addr #1 comdat align 2 {
entry:
  %this.addr = alloca ptr, align 8
  store ptr %this, ptr %this.addr, align 8
  ret void
}

; Function Attrs: mustprogress nounwind uwtable
define linkonce_odr void @_ZNSt8__detail15_Hash_code_baseIPKhS2_NS_9_IdentityESt4hashIS2_ENS_18_Mod_range_hashingENS_20_Default_ranged_hashELb0EEC2Ev(ptr noundef nonnull align 1 dereferenceable(1) %this) unnamed_addr #1 comdat align 2 {
entry:
  %this.addr = alloca ptr, align 8
  store ptr %this, ptr %this.addr, align 8
  %this1 = load ptr, ptr %this.addr, align 8
  call void @_ZNSt8__detail21_Hashtable_ebo_helperILi1ESt4hashIPKhELb1EEC2Ev(ptr noundef nonnull align 1 dereferenceable(1) %this1) #12
  ret void
}

; Function Attrs: mustprogress nounwind uwtable
define linkonce_odr void @_ZNSt8__detail20_Prime_rehash_policyC2Ef(ptr noundef nonnull align 8 dereferenceable(16) %this, float noundef %__z) unnamed_addr #1 comdat align 2 {
entry:
  %this.addr = alloca ptr, align 8
  %__z.addr = alloca float, align 4
  store ptr %this, ptr %this.addr, align 8
  store float %__z, ptr %__z.addr, align 4
  %this1 = load ptr, ptr %this.addr, align 8
  %_M_max_load_factor = getelementptr inbounds %"struct.std::__detail::_Prime_rehash_policy", ptr %this1, i32 0, i32 0
  %0 = load float, ptr %__z.addr, align 4
  store float %0, ptr %_M_max_load_factor, align 8
  %_M_next_resize = getelementptr inbounds %"struct.std::__detail::_Prime_rehash_policy", ptr %this1, i32 0, i32 1
  store i64 0, ptr %_M_next_resize, align 8
  ret void
}

; Function Attrs: mustprogress nounwind uwtable
define linkonce_odr void @_ZNSt8__detail15_Hash_node_baseC2Ev(ptr noundef nonnull align 8 dereferenceable(8) %this) unnamed_addr #1 comdat align 2 {
entry:
  %this.addr = alloca ptr, align 8
  store ptr %this, ptr %this.addr, align 8
  %this1 = load ptr, ptr %this.addr, align 8
  %_M_nxt = getelementptr inbounds %"struct.std::__detail::_Hash_node_base", ptr %this1, i32 0, i32 0
  store ptr null, ptr %_M_nxt, align 8
  ret void
}

; Function Attrs: mustprogress nounwind uwtable
define linkonce_odr void @_ZNSt8__detail16_Hashtable_allocISaINS_10_Hash_nodeIPKhLb0EEEEEC2Ev(ptr noundef nonnull align 1 dereferenceable(1) %this) unnamed_addr #1 comdat align 2 {
entry:
  %this.addr = alloca ptr, align 8
  store ptr %this, ptr %this.addr, align 8
  %this1 = load ptr, ptr %this.addr, align 8
  call void @_ZNSt8__detail21_Hashtable_ebo_helperILi0ESaINS_10_Hash_nodeIPKhLb0EEEELb1EEC2Ev(ptr noundef nonnull align 1 dereferenceable(1) %this1) #12
  ret void
}

; Function Attrs: mustprogress nounwind uwtable
define linkonce_odr void @_ZNSt8__detail15_Hashtable_baseIPKhS2_NS_9_IdentityESt8equal_toIS2_ESt4hashIS2_ENS_18_Mod_range_hashingENS_20_Default_ranged_hashENS_17_Hashtable_traitsILb0ELb1ELb1EEEEC2Ev(ptr noundef nonnull align 1 dereferenceable(1) %this) unnamed_addr #1 comdat align 2 {
entry:
  %this.addr = alloca ptr, align 8
  store ptr %this, ptr %this.addr, align 8
  %this1 = load ptr, ptr %this.addr, align 8
  call void @_ZNSt8__detail15_Hash_code_baseIPKhS2_NS_9_IdentityESt4hashIS2_ENS_18_Mod_range_hashingENS_20_Default_ranged_hashELb0EEC2Ev(ptr noundef nonnull align 1 dereferenceable(1) %this1) #12
  call void @_ZNSt8__detail21_Hashtable_ebo_helperILi0ESt8equal_toIPKhELb1EEC2Ev(ptr noundef nonnull align 1 dereferenceable(1) %this1) #12
  ret void
}

; Function Attrs: mustprogress nounwind uwtable
define linkonce_odr void @_ZNSt10_HashtableIPKhS1_SaIS1_ENSt8__detail9_IdentityESt8equal_toIS1_ESt4hashIS1_ENS3_18_Mod_range_hashingENS3_20_Default_ranged_hashENS3_20_Prime_rehash_policyENS3_17_Hashtable_traitsILb0ELb1ELb1EEEEC2Ev(ptr noundef nonnull align 8 dereferenceable(56) %this) unnamed_addr #1 comdat align 2 {
entry:
  %this.addr = alloca ptr, align 8
  store ptr %this, ptr %this.addr, align 8
  %this1 = load ptr, ptr %this.addr, align 8
  call void @_ZNSt8__detail15_Hashtable_baseIPKhS2_NS_9_IdentityESt8equal_toIS2_ESt4hashIS2_ENS_18_Mod_range_hashingENS_20_Default_ranged_hashENS_17_Hashtable_traitsILb0ELb1ELb1EEEEC2Ev(ptr noundef nonnull align 1 dereferenceable(1) %this1) #12
  call void @_ZNSt8__detail16_Hashtable_allocISaINS_10_Hash_nodeIPKhLb0EEEEEC2Ev(ptr noundef nonnull align 1 dereferenceable(1) %this1) #12
  %_M_buckets = getelementptr inbounds %"class.std::_Hashtable", ptr %this1, i32 0, i32 0
  %_M_single_bucket = getelementptr inbounds %"class.std::_Hashtable", ptr %this1, i32 0, i32 5
  store ptr %_M_single_bucket, ptr %_M_buckets, align 8
  %_M_bucket_count = getelementptr inbounds %"class.std::_Hashtable", ptr %this1, i32 0, i32 1
  store i64 1, ptr %_M_bucket_count, align 8
  %_M_before_begin = getelementptr inbounds %"class.std::_Hashtable", ptr %this1, i32 0, i32 2
  call void @_ZNSt8__detail15_Hash_node_baseC2Ev(ptr noundef nonnull align 8 dereferenceable(8) %_M_before_begin) #12
  %_M_element_count = getelementptr inbounds %"class.std::_Hashtable", ptr %this1, i32 0, i32 3
  store i64 0, ptr %_M_element_count, align 8
  %_M_rehash_policy = getelementptr inbounds %"class.std::_Hashtable", ptr %this1, i32 0, i32 4
  call void @_ZNSt8__detail20_Prime_rehash_policyC2Ef(ptr noundef nonnull align 8 dereferenceable(16) %_M_rehash_policy, float noundef 1.000000e+00) #12
  %_M_single_bucket2 = getelementptr inbounds %"class.std::_Hashtable", ptr %this1, i32 0, i32 5
  store ptr null, ptr %_M_single_bucket2, align 8
  ret void
}

; Function Attrs: mustprogress nounwind uwtable
define linkonce_odr void @_ZNSt13unordered_setIPKhSt4hashIS1_ESt8equal_toIS1_ESaIS1_EEC2Ev(ptr noundef nonnull align 8 dereferenceable(56) %this) unnamed_addr #1 comdat align 2 {
entry:
  %this.addr = alloca ptr, align 8
  store ptr %this, ptr %this.addr, align 8
  %this1 = load ptr, ptr %this.addr, align 8
  %_M_h = getelementptr inbounds %"class.std::unordered_set", ptr %this1, i32 0, i32 0
  call void @_ZNSt10_HashtableIPKhS1_SaIS1_ENSt8__detail9_IdentityESt8equal_toIS1_ESt4hashIS1_ENS3_18_Mod_range_hashingENS3_20_Default_ranged_hashENS3_20_Prime_rehash_policyENS3_17_Hashtable_traitsILb0ELb1ELb1EEEEC2Ev(ptr noundef nonnull align 8 dereferenceable(56) %_M_h) #12
  ret void
}

; Function Attrs: mustprogress uwtable
define noundef i64 @_ZN5arrow4util15TotalBufferSizeERKNS_9ArrayDataE(ptr noundef nonnull align 8 dereferenceable(104) %array_data) #0 personality ptr @__gxx_personality_v0 {
entry:
  %array_data.addr = alloca ptr, align 8
  %seen_buffers = alloca %"class.std::unordered_set", align 8
  %exn.slot = alloca ptr, align 8
  %ehselector.slot = alloca i32, align 4
  store ptr %array_data, ptr %array_data.addr, align 8
  call void @_ZNSt13unordered_setIPKhSt4hashIS1_ESt8equal_toIS1_ESaIS1_EEC2Ev(ptr noundef nonnull align 8 dereferenceable(56) %seen_buffers) #12
  %0 = load ptr, ptr %array_data.addr, align 8
  %call = invoke noundef i64 @_ZN5arrow4util12_GLOBAL__N_117DoTotalBufferSizeERKNS_9ArrayDataEPSt13unordered_setIPKhSt4hashIS7_ESt8equal_toIS7_ESaIS7_EE(ptr noundef nonnull align 8 dereferenceable(104) %0, ptr noundef %seen_buffers)
          to label %invoke.cont unwind label %lpad

invoke.cont:                                      ; preds = %entry
  call void @_ZNSt13unordered_setIPKhSt4hashIS1_ESt8equal_toIS1_ESaIS1_EED2Ev(ptr noundef nonnull align 8 dereferenceable(56) %seen_buffers) #12
  ret i64 %call

lpad:                                             ; preds = %entry
  %1 = landingpad { ptr, i32 }
          cleanup
  %2 = extractvalue { ptr, i32 } %1, 0
  store ptr %2, ptr %exn.slot, align 8
  %3 = extractvalue { ptr, i32 } %1, 1
  store i32 %3, ptr %ehselector.slot, align 4
  call void @_ZNSt13unordered_setIPKhSt4hashIS1_ESt8equal_toIS1_ESaIS1_EED2Ev(ptr noundef nonnull align 8 dereferenceable(56) %seen_buffers) #12
  br label %eh.resume

eh.resume:                                        ; preds = %lpad
  %exn = load ptr, ptr %exn.slot, align 8
  %sel = load i32, ptr %ehselector.slot, align 4
  %lpad.val = insertvalue { ptr, i32 } poison, ptr %exn, 0
  %lpad.val1 = insertvalue { ptr, i32 } %lpad.val, i32 %sel, 1
  resume { ptr, i32 } %lpad.val1
}