; Function Attrs: mustprogress uwtable
define noundef i64 @_ZN5arrow4util15TotalBufferSizeERKNS_9ArrayDataE(ptr nocapture noundef nonnull readonly align 8 dereferenceable(104) %array_data) local_unnamed_addr #0 personality ptr @__gxx_personality_v0 {
entry:
  %seen_buffers = alloca %"class.std::unordered_set", align 8
  %_M_single_bucket.i.i = getelementptr inbounds i8, ptr %seen_buffers, i64 48
  store ptr %_M_single_bucket.i.i, ptr %seen_buffers, align 8
  %_M_bucket_count.i.i = getelementptr inbounds i8, ptr %seen_buffers, i64 8
  store i64 1, ptr %_M_bucket_count.i.i, align 8
  %_M_before_begin.i.i = getelementptr inbounds i8, ptr %seen_buffers, i64 16
  %_M_rehash_policy.i.i = getelementptr inbounds i8, ptr %seen_buffers, i64 32
  call void @llvm.memset.p0.i64(ptr noundef nonnull align 8 dereferenceable(16) %_M_before_begin.i.i, i8 0, i64 16, i1 false)
  store float 1.000000e+00, ptr %_M_rehash_policy.i.i, align 8
  %_M_next_resize.i.i.i = getelementptr inbounds i8, ptr %seen_buffers, i64 40
  call void @llvm.memset.p0.i64(ptr noundef nonnull align 8 dereferenceable(16) %_M_next_resize.i.i.i, i8 0, i64 16, i1 false)
  %call = invoke fastcc noundef i64 @_ZN5arrow4util12_GLOBAL__N_117DoTotalBufferSizeERKNS_9ArrayDataEPSt13unordered_setIPKhSt4hashIS7_ESt8equal_toIS7_ESaIS7_EE(ptr noundef nonnull align 8 dereferenceable(104) %array_data, ptr noundef nonnull %seen_buffers)
          to label %invoke.cont unwind label %lpad

invoke.cont:                                      ; preds = %entry
  %0 = load ptr, ptr %_M_before_begin.i.i, align 8
  %tobool.not3.i.i.i.i = icmp eq ptr %0, null
  br i1 %tobool.not3.i.i.i.i, label %_ZNSt10_HashtableIPKhS1_SaIS1_ENSt8__detail9_IdentityESt8equal_toIS1_ESt4hashIS1_ENS3_18_Mod_range_hashingENS3_20_Default_ranged_hashENS3_20_Prime_rehash_policyENS3_17_Hashtable_traitsILb0ELb1ELb1EEEE5clearEv.exit.i.i, label %while.body.i.i.i.i

while.body.i.i.i.i:                               ; preds = %invoke.cont, %while.body.i.i.i.i
  %__n.addr.04.i.i.i.i = phi ptr [ %1, %while.body.i.i.i.i ], [ %0, %invoke.cont ]
  %1 = load ptr, ptr %__n.addr.04.i.i.i.i, align 8
  call void @_ZdlPv(ptr noundef nonnull %__n.addr.04.i.i.i.i) #16
  %tobool.not.i.i.i.i = icmp eq ptr %1, null
  br i1 %tobool.not.i.i.i.i, label %_ZNSt10_HashtableIPKhS1_SaIS1_ENSt8__detail9_IdentityESt8equal_toIS1_ESt4hashIS1_ENS3_18_Mod_range_hashingENS3_20_Default_ranged_hashENS3_20_Prime_rehash_policyENS3_17_Hashtable_traitsILb0ELb1ELb1EEEE5clearEv.exit.i.i, label %while.body.i.i.i.i, !llvm.loop !4

_ZNSt10_HashtableIPKhS1_SaIS1_ENSt8__detail9_IdentityESt8equal_toIS1_ESt4hashIS1_ENS3_18_Mod_range_hashingENS3_20_Default_ranged_hashENS3_20_Prime_rehash_policyENS3_17_Hashtable_traitsILb0ELb1ELb1EEEE5clearEv.exit.i.i: ; preds = %while.body.i.i.i.i, %invoke.cont
  %2 = load ptr, ptr %seen_buffers, align 8
  %3 = load i64, ptr %_M_bucket_count.i.i, align 8
  %mul.i.i.i = shl i64 %3, 3
  call void @llvm.memset.p0.i64(ptr align 8 %2, i8 0, i64 %mul.i.i.i, i1 false)
  call void @llvm.memset.p0.i64(ptr noundef nonnull align 8 dereferenceable(16) %_M_before_begin.i.i, i8 0, i64 16, i1 false)
  %4 = load ptr, ptr %seen_buffers, align 8
  %cmp.i.i.i.i.i = icmp eq ptr %_M_single_bucket.i.i, %4
  br i1 %cmp.i.i.i.i.i, label %_ZNSt13unordered_setIPKhSt4hashIS1_ESt8equal_toIS1_ESaIS1_EED2Ev.exit, label %if.end.i.i.i.i

if.end.i.i.i.i:                                   ; preds = %_ZNSt10_HashtableIPKhS1_SaIS1_ENSt8__detail9_IdentityESt8equal_toIS1_ESt4hashIS1_ENS3_18_Mod_range_hashingENS3_20_Default_ranged_hashENS3_20_Prime_rehash_policyENS3_17_Hashtable_traitsILb0ELb1ELb1EEEE5clearEv.exit.i.i
  call void @_ZdlPv(ptr noundef %4) #16
  br label %_ZNSt13unordered_setIPKhSt4hashIS1_ESt8equal_toIS1_ESaIS1_EED2Ev.exit

_ZNSt13unordered_setIPKhSt4hashIS1_ESt8equal_toIS1_ESaIS1_EED2Ev.exit: ; preds = %_ZNSt10_HashtableIPKhS1_SaIS1_ENSt8__detail9_IdentityESt8equal_toIS1_ESt4hashIS1_ENS3_18_Mod_range_hashingENS3_20_Default_ranged_hashENS3_20_Prime_rehash_policyENS3_17_Hashtable_traitsILb0ELb1ELb1EEEE5clearEv.exit.i.i, %if.end.i.i.i.i
  ret i64 %call

lpad:                                             ; preds = %entry
  %5 = landingpad { ptr, i32 }
          cleanup
  call void @_ZNSt13unordered_setIPKhSt4hashIS1_ESt8equal_toIS1_ESaIS1_EED2Ev(ptr noundef nonnull align 8 dereferenceable(56) %seen_buffers) #17
  resume { ptr, i32 } %5
}